; Function Attrs: mustprogress nofree norecurse nosync nounwind willreturn memory(read, inaccessiblemem: none) uwtable
define noundef double @_ZNK6icu_7714MessagePattern15getNumericValueERKNS0_4PartE(ptr noundef nonnull readonly align 8 captures(none) dereferenceable(127) %0, ptr noundef nonnull readonly align 4 captures(none) dereferenceable(16) %1) local_unnamed_addr #8 align 2 {
  %3 = load i32, ptr %1, align 4, !tbaa !44
  switch i32 %3, label %16 [
    i32 12, label %4
    i32 13, label %8
  ]

4:                                                ; preds = %2
  %5 = getelementptr inbounds nuw i8, ptr %1, i64 10
  %6 = load i16, ptr %5, align 2, !tbaa !50
  %7 = sitofp i16 %6 to double
  br label %16

8:                                                ; preds = %2
  %9 = getelementptr inbounds nuw i8, ptr %0, i64 112
  %10 = load ptr, ptr %9, align 8, !tbaa !36
  %11 = getelementptr inbounds nuw i8, ptr %1, i64 10
  %12 = load i16, ptr %11, align 2, !tbaa !50
  %13 = sext i16 %12 to i64
  %14 = getelementptr inbounds double, ptr %10, i64 %13
  %15 = load double, ptr %14, align 8, !tbaa !62
  br label %16

16:                                               ; preds = %2, %8, %4
  %.0 = phi double [ %7, %4 ], [ %15, %8 ], [ 0xC19D6F3454000000, %2 ]
  ret double %.0
}